	.file	"pragma.c"
	.text
	.section	.rodata
.LC0:
	.string	"\n Now we are in main function"
	.text
	.globl	main
	.type	main, @function
main:
.LFB0:
	.cfi_startproc
	pushq	%rbp
	.cfi_def_cfa_offset 16
	.cfi_offset 6, -16
	movq	%rsp, %rbp
	.cfi_def_cfa_register 6
	leaq	.LC0(%rip), %rdi
	movl	$0, %eax
	call	printf@PLT
	movl	$0, %eax
	popq	%rbp
	.cfi_def_cfa 7, 8
	ret
	.cfi_endproc
.LFE0:
	.size	main, .-main
	.section	.rodata
	.align 8
.LC1:
	.string	"\nFunction1 is called before main function call"
	.text
	.globl	function1
	.type	function1, @function
function1:
.LFB1:
	.cfi_startproc
	pushq	%rbp
	.cfi_def_cfa_offset 16
	.cfi_offset 6, -16
	movq	%rsp, %rbp
	.cfi_def_cfa_register 6
	leaq	.LC1(%rip), %rdi
	movl	$0, %eax
	call	printf@PLT
	nop
	popq	%rbp
	.cfi_def_cfa 7, 8
	ret
	.cfi_endproc
.LFE1:
	.size	function1, .-function1
	.section	.rodata
	.align 8
.LC2:
	.string	"\nFunction2 is called just before end of main function"
	.text
	.globl	function2
	.type	function2, @function
function2:
.LFB2:
	.cfi_startproc
	pushq	%rbp
	.cfi_def_cfa_offset 16
	.cfi_offset 6, -16
	movq	%rsp, %rbp
	.cfi_def_cfa_register 6
	leaq	.LC2(%rip), %rdi
	movl	$0, %eax
	call	printf@PLT
	nop
	popq	%rbp
	.cfi_def_cfa 7, 8
	ret
	.cfi_endproc
.LFE2:
	.size	function2, .-function2
	.ident	"GCC: (Ubuntu 8.2.0-7ubuntu1) 8.2.0"
	.section	.note.GNU-stack,"",@progbits
